target datalayout = "e-m:e-p270:32:32-p271:32:32-p272:64:64-i64:64-i128:128-f80:128-n8:16:32:64-S128"
target triple = "x86_64-pc-linux-gnu"

%"struct.Imf_3_4::CompressionDesc" = type <{ %"class.std::__cxx11::basic_string", %"class.std::__cxx11::basic_string", i32, i8, i8, [2 x i8] }>
%"class.std::__cxx11::basic_string" = type { %"struct.std::__cxx11::basic_string<char>::_Alloc_hider", i64, %union.anon }
%"struct.std::__cxx11::basic_string<char>::_Alloc_hider" = type { ptr }
%union.anon = type { i64, [8 x i8] }

@_ZN7Imf_3_4L8IdToDescE = internal global [10 x %"struct.Imf_3_4::CompressionDesc"] zeroinitializer, align 16

; Function Attrs: mustprogress nounwind uwtable
define noundef i32 @_ZN7Imf_3_426getCompressionNumScanlinesENS_11CompressionE(i32 noundef %0) #2 {
  %2 = alloca i32, align 4
  %3 = alloca i32, align 4
  store i32 %0, ptr %3, align 4, !tbaa !28
  %4 = load i32, ptr %3, align 4, !tbaa !28
  %5 = icmp slt i32 %4, 0
  br i1 %5, label %9, label %6

6:                                                ; preds = %1
  %7 = load i32, ptr %3, align 4, !tbaa !28
  %8 = icmp sge i32 %7, 10
  br i1 %8, label %9, label %10

9:                                                ; preds = %6, %1
  store i32 -1, ptr %2, align 4
  br label %16

10:                                               ; preds = %6
  %11 = load i32, ptr %3, align 4, !tbaa !28
  %12 = sext i32 %11 to i64
  %13 = getelementptr inbounds [10 x %"struct.Imf_3_4::CompressionDesc"], ptr @_ZN7Imf_3_4L8IdToDescE, i64 0, i64 %12
  %14 = getelementptr inbounds nuw %"struct.Imf_3_4::CompressionDesc", ptr %13, i32 0, i32 2
  %15 = load i32, ptr %14, align 8, !tbaa !18
  store i32 %15, ptr %2, align 4
  br label %16

16:                                               ; preds = %10, %9
  %17 = load i32, ptr %2, align 4
  ret i32 %17
}