; Function Attrs: mustprogress nofree norecurse nosync nounwind willreturn memory(read, argmem: none, inaccessiblemem: none) uwtable
define noundef i32 @_ZN7Imf_3_426getCompressionNumScanlinesENS_11CompressionE(i32 noundef %0) local_unnamed_addr #8 {
  %or.cond = icmp ugt i32 %0, 9
  br i1 %or.cond, label %6, label %2

2:                                                ; preds = %1
  %3 = zext nneg i32 %0 to i64
  %4 = getelementptr inbounds nuw [10 x %"struct.Imf_3_4::CompressionDesc"], ptr @_ZN7Imf_3_4L8IdToDescE, i64 0, i64 %3, i32 2
  %5 = load i32, ptr %4, align 8, !tbaa !35
  br label %6

6:                                                ; preds = %1, %2
  %.0 = phi i32 [ %5, %2 ], [ -1, %1 ]
  ret i32 %.0
}